target datalayout = "e-m:e-p270:32:32-p271:32:32-p272:64:64-i64:64-i128:128-f80:128-n8:16:32:64-S128"
target triple = "x86_64-pc-linux-gnu"

%"class.llvm::FoldingSetBase" = type { ptr, i32, i32 }

; Function Attrs: mustprogress nounwind uwtable
define dso_local noundef nonnull align 8 dereferenceable(16) ptr @_ZN4llvm14FoldingSetBaseaSEOS0_(ptr noundef nonnull align 8 dereferenceable(16) %0, ptr noundef nonnull align 8 dereferenceable(16) %1) #0 align 2 {
  %3 = alloca ptr, align 8
  %4 = alloca ptr, align 8
  store ptr %0, ptr %3, align 8
  store ptr %1, ptr %4, align 8
  %5 = load ptr, ptr %3, align 8
  %6 = getelementptr inbounds nuw %"class.llvm::FoldingSetBase", ptr %5, i32 0, i32 0
  %7 = load ptr, ptr %6, align 8
  call void @free(ptr noundef %7) #11
  %8 = load ptr, ptr %4, align 8
  %9 = getelementptr inbounds nuw %"class.llvm::FoldingSetBase", ptr %8, i32 0, i32 0
  %10 = load ptr, ptr %9, align 8
  %11 = getelementptr inbounds nuw %"class.llvm::FoldingSetBase", ptr %5, i32 0, i32 0
  store ptr %10, ptr %11, align 8
  %12 = load ptr, ptr %4, align 8
  %13 = getelementptr inbounds nuw %"class.llvm::FoldingSetBase", ptr %12, i32 0, i32 1
  %14 = load i32, ptr %13, align 8
  %15 = getelementptr inbounds nuw %"class.llvm::FoldingSetBase", ptr %5, i32 0, i32 1
  store i32 %14, ptr %15, align 8
  %16 = load ptr, ptr %4, align 8
  %17 = getelementptr inbounds nuw %"class.llvm::FoldingSetBase", ptr %16, i32 0, i32 2
  %18 = load i32, ptr %17, align 4
  %19 = getelementptr inbounds nuw %"class.llvm::FoldingSetBase", ptr %5, i32 0, i32 2
  store i32 %18, ptr %19, align 4
  %20 = load ptr, ptr %4, align 8
  %21 = getelementptr inbounds nuw %"class.llvm::FoldingSetBase", ptr %20, i32 0, i32 0
  store ptr null, ptr %21, align 8
  %22 = load ptr, ptr %4, align 8
  %23 = getelementptr inbounds nuw %"class.llvm::FoldingSetBase", ptr %22, i32 0, i32 1
  store i32 0, ptr %23, align 8
  %24 = load ptr, ptr %4, align 8
  %25 = getelementptr inbounds nuw %"class.llvm::FoldingSetBase", ptr %24, i32 0, i32 2
  store i32 0, ptr %25, align 4
  ret ptr %5
}