; Function Attrs: mustprogress nounwind willreturn uwtable
define dso_local noundef nonnull align 8 dereferenceable(16) ptr @_ZN4llvm14FoldingSetBaseaSEOS0_(ptr noundef nonnull returned align 8 dereferenceable(16) %0, ptr nocapture noundef nonnull align 8 dereferenceable(16) %1) local_unnamed_addr #6 align 2 {
  %3 = load ptr, ptr %0, align 8
  tail call void @free(ptr noundef %3) #21
  %4 = load ptr, ptr %1, align 8
  store ptr %4, ptr %0, align 8
  %5 = getelementptr inbounds nuw i8, ptr %1, i64 8
  %6 = load i32, ptr %5, align 8
  %7 = getelementptr inbounds nuw i8, ptr %0, i64 8
  store i32 %6, ptr %7, align 8
  %8 = getelementptr inbounds nuw i8, ptr %1, i64 12
  %9 = load i32, ptr %8, align 4
  %10 = getelementptr inbounds nuw i8, ptr %0, i64 12
  store i32 %9, ptr %10, align 4
  tail call void @llvm.memset.p0.i64(ptr noundef nonnull align 8 dereferenceable(16) %1, i8 0, i64 16, i1 false)
  ret ptr %0
}